target datalayout = "e-m:e-p270:32:32-p271:32:32-p272:64:64-i64:64-i128:128-f80:128-n8:16:32:64-S128"
target triple = "x86_64-pc-linux-gnu"

%struct.ParseEnv = type { i32, i32, ptr, ptr, i32, i32, i32, ptr, ptr, ptr, ptr, ptr, i32, i32, i32, i32, [8 x %struct.MemEnv], ptr, i32, i32, i32, i32, ptr, ptr, i32, i32 }
%struct.MemEnv = type { ptr, ptr }

@MaxCaptureNum = internal global i32 32767, align 4

; Function Attrs: nounwind uwtable
define internal i32 @scan_env_add_mem_entry(ptr noundef %0) #0 {
  %2 = alloca i32, align 4
  %3 = alloca ptr, align 8
  %4 = alloca i32, align 4
  %5 = alloca i32, align 4
  %6 = alloca i32, align 4
  %7 = alloca ptr, align 8
  %8 = alloca i32, align 4
  store ptr %0, ptr %3, align 8, !tbaa !9
  call void @llvm.lifetime.start.p0(i64 4, ptr %4) #8
  call void @llvm.lifetime.start.p0(i64 4, ptr %5) #8
  call void @llvm.lifetime.start.p0(i64 4, ptr %6) #8
  call void @llvm.lifetime.start.p0(i64 8, ptr %7) #8
  %9 = load ptr, ptr %3, align 8, !tbaa !9
  %10 = getelementptr inbounds nuw %struct.ParseEnv, ptr %9, i32 0, i32 13
  %11 = load i32, ptr %10, align 4, !tbaa !164
  %12 = add nsw i32 %11, 1
  store i32 %12, ptr %5, align 4, !tbaa !10
  %13 = load i32, ptr %5, align 4, !tbaa !10
  %14 = load i32, ptr @MaxCaptureNum, align 4, !tbaa !10
  %15 = icmp sgt i32 %13, %14
  br i1 %15, label %16, label %20

16:                                               ; preds = %1
  %17 = load i32, ptr @MaxCaptureNum, align 4, !tbaa !10
  %18 = icmp ne i32 %17, 0
  br i1 %18, label %19, label %20

19:                                               ; preds = %16
  store i32 -210, ptr %2, align 4
  store i32 1, ptr %8, align 4
  br label %102

20:                                               ; preds = %16, %1
  %21 = load i32, ptr %5, align 4, !tbaa !10
  %22 = icmp sge i32 %21, 8
  br i1 %22, label %23, label %94

23:                                               ; preds = %20
  %24 = load ptr, ptr %3, align 8, !tbaa !9
  %25 = getelementptr inbounds nuw %struct.ParseEnv, ptr %24, i32 0, i32 15
  %26 = load i32, ptr %25, align 4, !tbaa !173
  %27 = load i32, ptr %5, align 4, !tbaa !10
  %28 = icmp sle i32 %26, %27
  br i1 %28, label %29, label %93

29:                                               ; preds = %23
  %30 = load ptr, ptr %3, align 8, !tbaa !9
  %31 = getelementptr inbounds nuw %struct.ParseEnv, ptr %30, i32 0, i32 17
  %32 = load ptr, ptr %31, align 8, !tbaa !174
  %33 = icmp eq ptr %32, null
  br i1 %33, label %34, label %47

34:                                               ; preds = %29
  store i32 16, ptr %6, align 4, !tbaa !10
  %35 = load i32, ptr %6, align 4, !tbaa !10
  %36 = sext i32 %35 to i64
  %37 = mul i64 16, %36
  %38 = call noalias ptr @malloc(i64 noundef %37) #9
  store ptr %38, ptr %7, align 8, !tbaa !9
  %39 = load ptr, ptr %7, align 8, !tbaa !9
  %40 = icmp eq ptr %39, null
  br i1 %40, label %41, label %42

41:                                               ; preds = %34
  store i32 -5, ptr %2, align 4
  store i32 1, ptr %8, align 4
  br label %102

42:                                               ; preds = %34
  %43 = load ptr, ptr %7, align 8, !tbaa !9
  %44 = load ptr, ptr %3, align 8, !tbaa !9
  %45 = getelementptr inbounds nuw %struct.ParseEnv, ptr %44, i32 0, i32 16
  %46 = getelementptr inbounds [8 x %struct.MemEnv], ptr %45, i64 0, i64 0
  call void @llvm.memcpy.p0.p0.i64(ptr align 8 %43, ptr align 8 %46, i64 128, i1 false)
  br label %63

47:                                               ; preds = %29
  %48 = load ptr, ptr %3, align 8, !tbaa !9
  %49 = getelementptr inbounds nuw %struct.ParseEnv, ptr %48, i32 0, i32 15
  %50 = load i32, ptr %49, align 4, !tbaa !173
  %51 = mul nsw i32 %50, 2
  store i32 %51, ptr %6, align 4, !tbaa !10
  %52 = load ptr, ptr %3, align 8, !tbaa !9
  %53 = getelementptr inbounds nuw %struct.ParseEnv, ptr %52, i32 0, i32 17
  %54 = load ptr, ptr %53, align 8, !tbaa !174
  %55 = load i32, ptr %6, align 4, !tbaa !10
  %56 = sext i32 %55 to i64
  %57 = mul i64 16, %56
  %58 = call ptr @realloc(ptr noundef %54, i64 noundef %57) #10
  store ptr %58, ptr %7, align 8, !tbaa !9
  %59 = load ptr, ptr %7, align 8, !tbaa !9
  %60 = icmp eq ptr %59, null
  br i1 %60, label %61, label %62

61:                                               ; preds = %47
  store i32 -5, ptr %2, align 4
  store i32 1, ptr %8, align 4
  br label %102

62:                                               ; preds = %47
  br label %63

63:                                               ; preds = %62, %42
  %64 = load ptr, ptr %3, align 8, !tbaa !9
  %65 = getelementptr inbounds nuw %struct.ParseEnv, ptr %64, i32 0, i32 13
  %66 = load i32, ptr %65, align 4, !tbaa !164
  %67 = add nsw i32 %66, 1
  store i32 %67, ptr %4, align 4, !tbaa !10
  br label %68

68:                                               ; preds = %83, %63
  %69 = load i32, ptr %4, align 4, !tbaa !10
  %70 = load i32, ptr %6, align 4, !tbaa !10
  %71 = icmp slt i32 %69, %70
  br i1 %71, label %72, label %86

72:                                               ; preds = %68
  %73 = load ptr, ptr %7, align 8, !tbaa !9
  %74 = load i32, ptr %4, align 4, !tbaa !10
  %75 = sext i32 %74 to i64
  %76 = getelementptr inbounds %struct.MemEnv, ptr %73, i64 %75
  %77 = getelementptr inbounds nuw %struct.MemEnv, ptr %76, i32 0, i32 0
  store ptr null, ptr %77, align 8, !tbaa !199
  %78 = load ptr, ptr %7, align 8, !tbaa !9
  %79 = load i32, ptr %4, align 4, !tbaa !10
  %80 = sext i32 %79 to i64
  %81 = getelementptr inbounds %struct.MemEnv, ptr %78, i64 %80
  %82 = getelementptr inbounds nuw %struct.MemEnv, ptr %81, i32 0, i32 1
  store ptr null, ptr %82, align 8, !tbaa !254
  br label %83

83:                                               ; preds = %72
  %84 = load i32, ptr %4, align 4, !tbaa !10
  %85 = add nsw i32 %84, 1
  store i32 %85, ptr %4, align 4, !tbaa !10
  br label %68, !llvm.loop !255

86:                                               ; preds = %68
  %87 = load ptr, ptr %7, align 8, !tbaa !9
  %88 = load ptr, ptr %3, align 8, !tbaa !9
  %89 = getelementptr inbounds nuw %struct.ParseEnv, ptr %88, i32 0, i32 17
  store ptr %87, ptr %89, align 8, !tbaa !174
  %90 = load i32, ptr %6, align 4, !tbaa !10
  %91 = load ptr, ptr %3, align 8, !tbaa !9
  %92 = getelementptr inbounds nuw %struct.ParseEnv, ptr %91, i32 0, i32 15
  store i32 %90, ptr %92, align 4, !tbaa !173
  br label %93

93:                                               ; preds = %86, %23
  br label %94

94:                                               ; preds = %93, %20
  %95 = load ptr, ptr %3, align 8, !tbaa !9
  %96 = getelementptr inbounds nuw %struct.ParseEnv, ptr %95, i32 0, i32 13
  %97 = load i32, ptr %96, align 4, !tbaa !164
  %98 = add nsw i32 %97, 1
  store i32 %98, ptr %96, align 4, !tbaa !164
  %99 = load ptr, ptr %3, align 8, !tbaa !9
  %100 = getelementptr inbounds nuw %struct.ParseEnv, ptr %99, i32 0, i32 13
  %101 = load i32, ptr %100, align 4, !tbaa !164
  store i32 %101, ptr %2, align 4
  store i32 1, ptr %8, align 4
  br label %102

102:                                              ; preds = %94, %61, %41, %19
  call void @llvm.lifetime.end.p0(i64 8, ptr %7) #8
  call void @llvm.lifetime.end.p0(i64 4, ptr %6) #8
  call void @llvm.lifetime.end.p0(i64 4, ptr %5) #8
  call void @llvm.lifetime.end.p0(i64 4, ptr %4) #8
  %103 = load i32, ptr %2, align 4
  ret i32 %103
}