; Function Attrs: mustprogress nounwind willreturn uwtable
define internal fastcc range(i32 -2147483647, -2147483648) i32 @scan_env_add_mem_entry(ptr noundef captures(none) %0) unnamed_addr #15 {
  %2 = getelementptr inbounds nuw i8, ptr %0, i64 84
  %3 = load i32, ptr %2, align 4, !tbaa !153
  %4 = add nsw i32 %3, 1
  %5 = load i32, ptr @MaxCaptureNum, align 4, !tbaa !8
  %6 = icmp sge i32 %3, %5
  %7 = icmp ne i32 %5, 0
  %or.cond = and i1 %6, %7
  br i1 %or.cond, label %40, label %8

8:                                                ; preds = %1
  %9 = icmp sgt i32 %3, 6
  br i1 %9, label %10, label %39

10:                                               ; preds = %8
  %11 = getelementptr inbounds nuw i8, ptr %0, i64 92
  %12 = load i32, ptr %11, align 4, !tbaa !192
  %.not = icmp sgt i32 %12, %4
  br i1 %.not, label %39, label %13

13:                                               ; preds = %10
  %14 = getelementptr inbounds nuw i8, ptr %0, i64 224
  %15 = load ptr, ptr %14, align 8, !tbaa !154
  %16 = icmp eq ptr %15, null
  br i1 %16, label %17, label %22

17:                                               ; preds = %13
  %18 = tail call noalias dereferenceable_or_null(256) ptr @malloc(i64 noundef 256) #26
  %19 = icmp eq ptr %18, null
  br i1 %19, label %40, label %20

20:                                               ; preds = %17
  %21 = getelementptr inbounds nuw i8, ptr %0, i64 96
  tail call void @llvm.memcpy.p0.p0.i64(ptr noundef nonnull align 8 dereferenceable(128) %18, ptr noundef nonnull align 8 dereferenceable(128) %21, i64 128, i1 false)
  br label %28

22:                                               ; preds = %13
  %23 = shl nsw i32 %12, 1
  %24 = sext i32 %23 to i64
  %25 = shl nsw i64 %24, 4
  %26 = tail call ptr @realloc(ptr noundef nonnull %15, i64 noundef %25) #27
  %27 = icmp eq ptr %26, null
  br i1 %27, label %40, label %._crit_edge40

._crit_edge40:                                    ; preds = %22
  %.pre = load i32, ptr %2, align 4, !tbaa !153
  %.pre41 = add nsw i32 %.pre, 1
  br label %28

28:                                               ; preds = %._crit_edge40, %20
  %.03137.pre-phi = phi i32 [ %.pre41, %._crit_edge40 ], [ %4, %20 ]
  %29 = phi i32 [ %.pre, %._crit_edge40 ], [ %3, %20 ]
  %.029 = phi i32 [ %23, %._crit_edge40 ], [ 16, %20 ]
  %.0 = phi ptr [ %26, %._crit_edge40 ], [ %18, %20 ]
  %30 = icmp slt i32 %.03137.pre-phi, %.029
  br i1 %30, label %.lr.ph.preheader, label %._crit_edge

.lr.ph.preheader:                                 ; preds = %28
  %31 = sext i32 %29 to i64
  %32 = shl nsw i64 %31, 4
  %33 = getelementptr i8, ptr %.0, i64 %32
  %scevgep = getelementptr i8, ptr %33, i64 16
  %34 = add nsw i32 %.029, -2
  %35 = sub i32 %34, %29
  %36 = zext i32 %35 to i64
  %37 = shl nuw nsw i64 %36, 4
  %38 = add nuw nsw i64 %37, 16
  tail call void @llvm.memset.p0.i64(ptr noundef nonnull align 8 dereferenceable(1) %scevgep, i8 0, i64 %38, i1 false), !tbaa !112
  br label %._crit_edge

._crit_edge:                                      ; preds = %.lr.ph.preheader, %28
  store ptr %.0, ptr %14, align 8, !tbaa !154
  store i32 %.029, ptr %11, align 4, !tbaa !192
  br label %39

39:                                               ; preds = %10, %._crit_edge, %8
  %.pre-phi = phi i32 [ %4, %10 ], [ %.03137.pre-phi, %._crit_edge ], [ %4, %8 ]
  store i32 %.pre-phi, ptr %2, align 4, !tbaa !153
  br label %40

40:                                               ; preds = %22, %17, %1, %39
  %.030 = phi i32 [ %.pre-phi, %39 ], [ -210, %1 ], [ -5, %17 ], [ -5, %22 ]
  ret i32 %.030
}